; Function Attrs: nounwind uwtable
define ptr @l_Lean_Compiler_LCNF_UnreachableBranches_Value_proj(ptr noundef %0, ptr noundef %1) local_unnamed_addr #1 {
  %3 = ptrtoint ptr %0 to i64
  %4 = and i64 %3, 1
  %.not.i18 = icmp eq i64 %4, 0
  br i1 %.not.i18, label %8, label %5

5:                                                ; preds = %2
  %6 = lshr i64 %3, 1
  %7 = trunc i64 %6 to i32
  br label %lean_obj_tag.exit

8:                                                ; preds = %2
  %9 = getelementptr i8, ptr %0, i64 4
  %.val.i = load i32, ptr %9, align 4
  %10 = lshr i32 %.val.i, 24
  br label %lean_obj_tag.exit

lean_obj_tag.exit:                                ; preds = %5, %8
  %.0.i19 = phi i32 [ %7, %5 ], [ %10, %8 ]
  switch i32 %.0.i19, label %56 [
    i32 2, label %11
    i32 3, label %36
  ]

11:                                               ; preds = %lean_obj_tag.exit
  %12 = getelementptr inbounds nuw i8, ptr %0, i64 16
  %13 = load ptr, ptr %12, align 8, !tbaa !11
  %14 = getelementptr i8, ptr %13, i64 8
  %.val = load i64, ptr %14, align 8, !tbaa !9
  %15 = shl i64 %.val, 1
  %16 = or disjoint i64 %15, 1
  %17 = inttoptr i64 %16 to ptr
  %18 = ptrtoint ptr %1 to i64
  %19 = and i64 %18, 1
  %.not = icmp eq i64 %19, 0
  br i1 %.not, label %lean_dec.exit, label %20, !prof !14

20:                                               ; preds = %11
  %21 = icmp ult ptr %1, %17
  br i1 %21, label %23, label %lean_array_fget.exit

lean_dec.exit:                                    ; preds = %11
  %22 = tail call zeroext i1 @lean_nat_big_lt(ptr noundef %1, ptr noundef nonnull %17) #8
  br i1 %22, label %23, label %lean_array_fget.exit

23:                                               ; preds = %20, %lean_dec.exit
  %24 = lshr i64 %18, 1
  %25 = getelementptr inbounds nuw i8, ptr %13, i64 24
  %26 = getelementptr inbounds nuw [0 x ptr], ptr %25, i64 0, i64 %24
  %27 = load ptr, ptr %26, align 8, !tbaa !11
  %28 = ptrtoint ptr %27 to i64
  %29 = and i64 %28, 1
  %.not.i.i = icmp eq i64 %29, 0
  br i1 %.not.i.i, label %30, label %lean_array_fget.exit

30:                                               ; preds = %23
  %.val.i.i.i = load i32, ptr %27, align 4, !tbaa !4
  %31 = icmp sgt i32 %.val.i.i.i, 0
  br i1 %31, label %32, label %34, !prof !13

32:                                               ; preds = %30
  %33 = add nuw i32 %.val.i.i.i, 1
  store i32 %33, ptr %27, align 4, !tbaa !4
  br label %lean_array_fget.exit

34:                                               ; preds = %30
  %.not.i.i.i = icmp eq i32 %.val.i.i.i, 0
  br i1 %.not.i.i.i, label %lean_array_fget.exit, label %35

35:                                               ; preds = %34
  tail call void @lean_inc_ref_cold(ptr noundef nonnull %27) #8
  br label %lean_array_fget.exit

36:                                               ; preds = %lean_obj_tag.exit
  %37 = getelementptr inbounds nuw i8, ptr %0, i64 8
  %38 = load ptr, ptr %37, align 8, !tbaa !11
  br label %39

39:                                               ; preds = %49, %36
  %.010.i = phi ptr [ %38, %36 ], [ %53, %49 ]
  %.0.i20 = phi ptr [ inttoptr (i64 1 to ptr), %36 ], [ %55, %49 ]
  %40 = ptrtoint ptr %.010.i to i64
  %41 = and i64 %40, 1
  %.not.i.i21 = icmp eq i64 %41, 0
  br i1 %.not.i.i21, label %45, label %42

42:                                               ; preds = %39
  %43 = lshr i64 %40, 1
  %44 = trunc i64 %43 to i32
  br label %lean_obj_tag.exit.i

45:                                               ; preds = %39
  %46 = getelementptr i8, ptr %.010.i, i64 4
  %.val.i.i = load i32, ptr %46, align 4
  %47 = lshr i32 %.val.i.i, 24
  br label %lean_obj_tag.exit.i

lean_obj_tag.exit.i:                              ; preds = %45, %42
  %.0.i.i = phi i32 [ %44, %42 ], [ %47, %45 ]
  %48 = icmp eq i32 %.0.i.i, 0
  br i1 %48, label %lean_array_fget.exit, label %49

49:                                               ; preds = %lean_obj_tag.exit.i
  %50 = getelementptr inbounds nuw i8, ptr %.010.i, i64 8
  %51 = load ptr, ptr %50, align 8, !tbaa !11
  %52 = getelementptr inbounds nuw i8, ptr %.010.i, i64 16
  %53 = load ptr, ptr %52, align 8, !tbaa !11
  %54 = tail call ptr @l_Lean_Compiler_LCNF_UnreachableBranches_Value_proj(ptr noundef %51, ptr noundef %1)
  %55 = tail call ptr @l_Lean_Compiler_LCNF_UnreachableBranches_Value_merge(ptr noundef %.0.i20, ptr noundef %54)
  br label %39

56:                                               ; preds = %lean_obj_tag.exit
  br i1 %.not.i18, label %57, label %lean_array_fget.exit

57:                                               ; preds = %56
  %.val.i22 = load i32, ptr %0, align 4, !tbaa !4
  %58 = icmp sgt i32 %.val.i22, 0
  br i1 %58, label %59, label %61, !prof !13

59:                                               ; preds = %57
  %60 = add nuw i32 %.val.i22, 1
  store i32 %60, ptr %0, align 4, !tbaa !4
  br label %lean_array_fget.exit

61:                                               ; preds = %57
  %.not.i23 = icmp eq i32 %.val.i22, 0
  br i1 %.not.i23, label %lean_array_fget.exit, label %62

62:                                               ; preds = %61
  tail call void @lean_inc_ref_cold(ptr noundef nonnull %0) #8
  br label %lean_array_fget.exit

lean_array_fget.exit:                             ; preds = %lean_obj_tag.exit.i, %20, %56, %59, %61, %62, %35, %34, %32, %23, %lean_dec.exit
  %.1 = phi ptr [ inttoptr (i64 1 to ptr), %lean_dec.exit ], [ %27, %23 ], [ %27, %32 ], [ %27, %34 ], [ %27, %35 ], [ %0, %62 ], [ %0, %61 ], [ %0, %59 ], [ %0, %56 ], [ inttoptr (i64 1 to ptr), %20 ], [ %.0.i20, %lean_obj_tag.exit.i ]
  ret ptr %.1
}